target datalayout = "e-m:e-p270:32:32-p271:32:32-p272:64:64-i64:64-i128:128-f80:128-n8:16:32:64-S128"
target triple = "x86_64-pc-linux-gnu"

%struct._object = type { %union.anon, ptr }
%union.anon = type { i64 }
%struct.PyVarObject = type { %struct._object, i64 }
%struct.arraydescr = type { i8, i32, ptr, ptr, ptr, ptr, i32, i32 }
%struct.arrayobject = type { %struct.PyVarObject, ptr, i64, ptr, ptr, i64 }

@PyExc_IndexError = external global ptr, align 8
@.str.56 = private unnamed_addr constant [36 x i8] c"array assignment index out of range\00", align 1
@PyExc_BufferError = external global ptr, align 8
@.str.57 = private unnamed_addr constant [49 x i8] c"cannot resize an array that is exporting buffers\00", align 1

; Function Attrs: nounwind uwtable
define internal i32 @array_del_slice(ptr noundef %0, i64 noundef %1, i64 noundef %2) #0 {
  %4 = alloca i32, align 4
  %5 = alloca ptr, align 8
  %6 = alloca i64, align 8
  %7 = alloca i64, align 8
  %8 = alloca ptr, align 8
  %9 = alloca i64, align 8
  %10 = alloca i32, align 4
  store ptr %0, ptr %5, align 8, !tbaa !68
  store i64 %1, ptr %6, align 8, !tbaa !21
  store i64 %2, ptr %7, align 8, !tbaa !21
  call void @llvm.lifetime.start.p0(i64 8, ptr %8) #8
  call void @llvm.lifetime.start.p0(i64 8, ptr %9) #8
  %11 = load i64, ptr %6, align 8, !tbaa !21
  %12 = icmp slt i64 %11, 0
  br i1 %12, label %13, label %14

13:                                               ; preds = %3
  store i64 0, ptr %6, align 8, !tbaa !21
  br label %23

14:                                               ; preds = %3
  %15 = load i64, ptr %6, align 8, !tbaa !21
  %16 = load ptr, ptr %5, align 8, !tbaa !68
  %17 = call i64 @Py_SIZE(ptr noundef %16)
  %18 = icmp sgt i64 %15, %17
  br i1 %18, label %19, label %22

19:                                               ; preds = %14
  %20 = load ptr, ptr %5, align 8, !tbaa !68
  %21 = call i64 @Py_SIZE(ptr noundef %20)
  store i64 %21, ptr %6, align 8, !tbaa !21
  br label %22

22:                                               ; preds = %19, %14
  br label %23

23:                                               ; preds = %22, %13
  %24 = load i64, ptr %7, align 8, !tbaa !21
  %25 = icmp slt i64 %24, 0
  br i1 %25, label %26, label %27

26:                                               ; preds = %23
  store i64 0, ptr %7, align 8, !tbaa !21
  br label %27

27:                                               ; preds = %26, %23
  %28 = load i64, ptr %7, align 8, !tbaa !21
  %29 = load i64, ptr %6, align 8, !tbaa !21
  %30 = icmp slt i64 %28, %29
  br i1 %30, label %31, label %33

31:                                               ; preds = %27
  %32 = load i64, ptr %6, align 8, !tbaa !21
  store i64 %32, ptr %7, align 8, !tbaa !21
  br label %42

33:                                               ; preds = %27
  %34 = load i64, ptr %7, align 8, !tbaa !21
  %35 = load ptr, ptr %5, align 8, !tbaa !68
  %36 = call i64 @Py_SIZE(ptr noundef %35)
  %37 = icmp sgt i64 %34, %36
  br i1 %37, label %38, label %41

38:                                               ; preds = %33
  %39 = load ptr, ptr %5, align 8, !tbaa !68
  %40 = call i64 @Py_SIZE(ptr noundef %39)
  store i64 %40, ptr %7, align 8, !tbaa !21
  br label %41

41:                                               ; preds = %38, %33
  br label %42

42:                                               ; preds = %41, %31
  %43 = load ptr, ptr %5, align 8, !tbaa !68
  %44 = getelementptr inbounds nuw %struct.arrayobject, ptr %43, i32 0, i32 1
  %45 = load ptr, ptr %44, align 8, !tbaa !70
  store ptr %45, ptr %8, align 8, !tbaa !47
  %46 = load i64, ptr %7, align 8, !tbaa !21
  %47 = load i64, ptr %6, align 8, !tbaa !21
  %48 = sub i64 %46, %47
  store i64 %48, ptr %9, align 8, !tbaa !21
  %49 = load i64, ptr %9, align 8, !tbaa !21
  %50 = icmp ne i64 %49, 0
  br i1 %50, label %51, label %58

51:                                               ; preds = %42
  %52 = load ptr, ptr %5, align 8, !tbaa !68
  %53 = getelementptr inbounds nuw %struct.arrayobject, ptr %52, i32 0, i32 5
  %54 = load i64, ptr %53, align 8, !tbaa !105
  %55 = icmp sgt i64 %54, 0
  br i1 %55, label %56, label %58

56:                                               ; preds = %51
  %57 = load ptr, ptr @PyExc_BufferError, align 8, !tbaa !3
  call void @PyErr_SetString(ptr noundef %57, ptr noundef @.str.57)
  store i32 -1, ptr %4, align 4
  store i32 1, ptr %10, align 4
  br label %105

58:                                               ; preds = %51, %42
  %59 = load i64, ptr %9, align 8, !tbaa !21
  %60 = icmp sgt i64 %59, 0
  br i1 %60, label %61, label %104

61:                                               ; preds = %58
  %62 = load ptr, ptr %8, align 8, !tbaa !47
  %63 = load i64, ptr %7, align 8, !tbaa !21
  %64 = load i64, ptr %9, align 8, !tbaa !21
  %65 = sub i64 %63, %64
  %66 = load ptr, ptr %5, align 8, !tbaa !68
  %67 = getelementptr inbounds nuw %struct.arrayobject, ptr %66, i32 0, i32 3
  %68 = load ptr, ptr %67, align 8, !tbaa !99
  %69 = getelementptr inbounds nuw %struct.arraydescr, ptr %68, i32 0, i32 1
  %70 = load i32, ptr %69, align 4, !tbaa !52
  %71 = sext i32 %70 to i64
  %72 = mul i64 %65, %71
  %73 = getelementptr i8, ptr %62, i64 %72
  %74 = load ptr, ptr %8, align 8, !tbaa !47
  %75 = load i64, ptr %7, align 8, !tbaa !21
  %76 = load ptr, ptr %5, align 8, !tbaa !68
  %77 = getelementptr inbounds nuw %struct.arrayobject, ptr %76, i32 0, i32 3
  %78 = load ptr, ptr %77, align 8, !tbaa !99
  %79 = getelementptr inbounds nuw %struct.arraydescr, ptr %78, i32 0, i32 1
  %80 = load i32, ptr %79, align 4, !tbaa !52
  %81 = sext i32 %80 to i64
  %82 = mul i64 %75, %81
  %83 = getelementptr i8, ptr %74, i64 %82
  %84 = load ptr, ptr %5, align 8, !tbaa !68
  %85 = call i64 @Py_SIZE(ptr noundef %84)
  %86 = load i64, ptr %7, align 8, !tbaa !21
  %87 = sub i64 %85, %86
  %88 = load ptr, ptr %5, align 8, !tbaa !68
  %89 = getelementptr inbounds nuw %struct.arrayobject, ptr %88, i32 0, i32 3
  %90 = load ptr, ptr %89, align 8, !tbaa !99
  %91 = getelementptr inbounds nuw %struct.arraydescr, ptr %90, i32 0, i32 1
  %92 = load i32, ptr %91, align 4, !tbaa !52
  %93 = sext i32 %92 to i64
  %94 = mul i64 %87, %93
  call void @llvm.memmove.p0.p0.i64(ptr align 1 %73, ptr align 1 %83, i64 %94, i1 false)
  %95 = load ptr, ptr %5, align 8, !tbaa !68
  %96 = load ptr, ptr %5, align 8, !tbaa !68
  %97 = call i64 @Py_SIZE(ptr noundef %96)
  %98 = load i64, ptr %9, align 8, !tbaa !21
  %99 = sub i64 %97, %98
  %100 = call i32 @array_resize(ptr noundef %95, i64 noundef %99)
  %101 = icmp eq i32 %100, -1
  br i1 %101, label %102, label %103

102:                                              ; preds = %61
  store i32 -1, ptr %4, align 4
  store i32 1, ptr %10, align 4
  br label %105

103:                                              ; preds = %61
  br label %104

104:                                              ; preds = %103, %58
  store i32 0, ptr %4, align 4
  store i32 1, ptr %10, align 4
  br label %105

105:                                              ; preds = %104, %102, %56
  call void @llvm.lifetime.end.p0(i64 8, ptr %9) #8
  call void @llvm.lifetime.end.p0(i64 8, ptr %8) #8
  %106 = load i32, ptr %4, align 4
  ret i32 %106
}

; Function Attrs: inlinehint nounwind uwtable
define internal i64 @Py_SIZE(ptr noundef %0) #3 {
  %2 = alloca ptr, align 8
  store ptr %0, ptr %2, align 8, !tbaa !3
  %3 = load ptr, ptr %2, align 8, !tbaa !3
  %4 = getelementptr inbounds nuw %struct.PyVarObject, ptr %3, i32 0, i32 1
  %5 = load i64, ptr %4, align 8, !tbaa !62
  ret i64 %5
}

; Function Attrs: nounwind uwtable
define internal i32 @array_ass_item(ptr noundef %0, i64 noundef %1, ptr noundef %2) #0 {
  %4 = alloca i32, align 4
  %5 = alloca ptr, align 8
  %6 = alloca i64, align 8
  %7 = alloca ptr, align 8
  store ptr %0, ptr %5, align 8, !tbaa !68
  store i64 %1, ptr %6, align 8, !tbaa !21
  store ptr %2, ptr %7, align 8, !tbaa !3
  %8 = load i64, ptr %6, align 8, !tbaa !21
  %9 = icmp slt i64 %8, 0
  br i1 %9, label %15, label %10

10:                                               ; preds = %3
  %11 = load i64, ptr %6, align 8, !tbaa !21
  %12 = load ptr, ptr %5, align 8, !tbaa !68
  %13 = call i64 @Py_SIZE(ptr noundef %12)
  %14 = icmp sge i64 %11, %13
  br i1 %14, label %15, label %17

15:                                               ; preds = %10, %3
  %16 = load ptr, ptr @PyExc_IndexError, align 8, !tbaa !3
  call void @PyErr_SetString(ptr noundef %16, ptr noundef @.str.56)
  store i32 -1, ptr %4, align 4
  br label %36

17:                                               ; preds = %10
  %18 = load ptr, ptr %7, align 8, !tbaa !3
  %19 = icmp eq ptr %18, null
  br i1 %19, label %20, label %26

20:                                               ; preds = %17
  %21 = load ptr, ptr %5, align 8, !tbaa !68
  %22 = load i64, ptr %6, align 8, !tbaa !21
  %23 = load i64, ptr %6, align 8, !tbaa !21
  %24 = add i64 %23, 1
  %25 = call i32 @array_del_slice(ptr noundef %21, i64 noundef %22, i64 noundef %24)
  store i32 %25, ptr %4, align 4
  br label %36

26:                                               ; preds = %17
  %27 = load ptr, ptr %5, align 8, !tbaa !68
  %28 = getelementptr inbounds nuw %struct.arrayobject, ptr %27, i32 0, i32 3
  %29 = load ptr, ptr %28, align 8, !tbaa !99
  %30 = getelementptr inbounds nuw %struct.arraydescr, ptr %29, i32 0, i32 3
  %31 = load ptr, ptr %30, align 8, !tbaa !109
  %32 = load ptr, ptr %5, align 8, !tbaa !68
  %33 = load i64, ptr %6, align 8, !tbaa !21
  %34 = load ptr, ptr %7, align 8, !tbaa !3
  %35 = call i32 %31(ptr noundef %32, i64 noundef %33, ptr noundef %34)
  store i32 %35, ptr %4, align 4
  br label %36

36:                                               ; preds = %26, %20, %15
  %37 = load i32, ptr %4, align 4
  ret i32 %37
}