; Function Attrs: nounwind uwtable
define internal i32 @array_ass_item(ptr noundef %0, i64 noundef %1, ptr noundef %2) #0 {
  %4 = icmp slt i64 %1, 0
  br i1 %4, label %7, label %5

5:                                                ; preds = %3
  %6 = getelementptr i8, ptr %0, i64 16
  %.val = load i64, ptr %6, align 8, !tbaa !40
  %.not = icmp slt i64 %1, %.val
  br i1 %.not, label %9, label %7

7:                                                ; preds = %5, %3
  %8 = load ptr, ptr @PyExc_IndexError, align 8, !tbaa !18
  tail call void @PyErr_SetString(ptr noundef %8, ptr noundef nonnull @.str.56) #11
  br label %array_del_slice.exit

9:                                                ; preds = %5
  %10 = icmp eq ptr %2, null
  br i1 %10, label %11, label %35

11:                                               ; preds = %9
  %12 = getelementptr inbounds nuw i8, ptr %0, i64 56
  %13 = load i64, ptr %12, align 8, !tbaa !83
  %14 = icmp sgt i64 %13, 0
  br i1 %14, label %15, label %17

15:                                               ; preds = %11
  %16 = load ptr, ptr @PyExc_BufferError, align 8, !tbaa !18
  tail call void @PyErr_SetString(ptr noundef %16, ptr noundef nonnull @.str.57) #11
  br label %array_del_slice.exit

17:                                               ; preds = %11
  %18 = add nuw nsw i64 %1, 1
  %19 = getelementptr inbounds nuw i8, ptr %0, i64 24
  %20 = load ptr, ptr %19, align 8, !tbaa !53
  %21 = getelementptr inbounds nuw i8, ptr %0, i64 40
  %22 = load ptr, ptr %21, align 8, !tbaa !76
  %23 = getelementptr inbounds nuw i8, ptr %22, i64 4
  %24 = load i32, ptr %23, align 4, !tbaa !49
  %25 = sext i32 %24 to i64
  %26 = mul i64 %1, %25
  %27 = getelementptr i8, ptr %20, i64 %26
  %28 = mul i64 %18, %25
  %29 = getelementptr i8, ptr %20, i64 %28
  %30 = sub nsw i64 %.val, %18
  %31 = mul i64 %30, %25
  tail call void @llvm.memmove.p0.p0.i64(ptr align 1 %27, ptr align 1 %29, i64 %31, i1 false)
  %.val.i = load i64, ptr %6, align 8, !tbaa !40
  %32 = add i64 %.val.i, -1
  %33 = tail call fastcc i32 @array_resize(ptr noundef nonnull %0, i64 noundef %32)
  %34 = icmp eq i32 %33, -1
  %spec.select = sext i1 %34 to i32
  br label %array_del_slice.exit

35:                                               ; preds = %9
  %36 = getelementptr inbounds nuw i8, ptr %0, i64 40
  %37 = load ptr, ptr %36, align 8, !tbaa !76
  %38 = getelementptr inbounds nuw i8, ptr %37, i64 16
  %39 = load ptr, ptr %38, align 8, !tbaa !77
  %40 = tail call i32 %39(ptr noundef nonnull %0, i64 noundef %1, ptr noundef nonnull %2) #11
  br label %array_del_slice.exit

array_del_slice.exit:                             ; preds = %17, %15, %35, %7
  %.0 = phi i32 [ -1, %7 ], [ %40, %35 ], [ -1, %15 ], [ %spec.select, %17 ]
  ret i32 %.0
}